target datalayout = "e-m:e-p270:32:32-p271:32:32-p272:64:64-i64:64-i128:128-f80:128-n8:16:32:64-S128"
target triple = "x86_64-pc-linux-gnu"

%struct.AVBPrint = type { ptr, i32, i32, i32, [1 x i8], [1000 x i8] }
%struct.GraphPrintContext = type { ptr, ptr, %struct.AVDiagramConfig, i32, i32, i32, i32, %struct.AVBPrint }
%struct.AVDiagramConfig = type { i32, ptr, ptr }

@.str.60 = private unnamed_addr constant [5 x i8] c"G%d_\00", align 1

; Function Attrs: nounwind uwtable
define internal signext i8 @sanitize_char(i8 noundef signext %0) #0 {
  %2 = alloca i8, align 1
  %3 = alloca i8, align 1
  store i8 %0, ptr %3, align 1, !tbaa !160
  %4 = load i8, ptr %3, align 1, !tbaa !160
  %5 = sext i8 %4 to i32
  %6 = icmp sge i32 %5, 48
  br i1 %6, label %7, label %11

7:                                                ; preds = %1
  %8 = load i8, ptr %3, align 1, !tbaa !160
  %9 = sext i8 %8 to i32
  %10 = icmp sle i32 %9, 57
  br i1 %10, label %27, label %11

11:                                               ; preds = %7, %1
  %12 = load i8, ptr %3, align 1, !tbaa !160
  %13 = sext i8 %12 to i32
  %14 = icmp sge i32 %13, 97
  br i1 %14, label %15, label %19

15:                                               ; preds = %11
  %16 = load i8, ptr %3, align 1, !tbaa !160
  %17 = sext i8 %16 to i32
  %18 = icmp sle i32 %17, 122
  br i1 %18, label %27, label %19

19:                                               ; preds = %15, %11
  %20 = load i8, ptr %3, align 1, !tbaa !160
  %21 = sext i8 %20 to i32
  %22 = icmp sge i32 %21, 65
  br i1 %22, label %23, label %29

23:                                               ; preds = %19
  %24 = load i8, ptr %3, align 1, !tbaa !160
  %25 = sext i8 %24 to i32
  %26 = icmp sle i32 %25, 90
  br i1 %26, label %27, label %29

27:                                               ; preds = %23, %15, %7
  %28 = load i8, ptr %3, align 1, !tbaa !160
  store i8 %28, ptr %2, align 1
  br label %30

29:                                               ; preds = %23, %19
  store i8 95, ptr %2, align 1
  br label %30

30:                                               ; preds = %29, %27
  %31 = load i8, ptr %2, align 1
  ret i8 %31
}

; Function Attrs: nounwind uwtable
define internal void @print_sanizied_id(ptr noundef %0, ptr noundef %1, ptr noundef %2, i32 noundef %3) #0 {
  %5 = alloca ptr, align 8
  %6 = alloca ptr, align 8
  %7 = alloca ptr, align 8
  %8 = alloca i32, align 4
  %9 = alloca ptr, align 8
  %10 = alloca %struct.AVBPrint, align 8
  %11 = alloca i32, align 4
  %12 = alloca ptr, align 8
  store ptr %0, ptr %5, align 8, !tbaa !11
  store ptr %1, ptr %6, align 8, !tbaa !33
  store ptr %2, ptr %7, align 8, !tbaa !33
  store i32 %3, ptr %8, align 4, !tbaa !21
  call void @llvm.lifetime.start.p0(i64 8, ptr %9) #9
  %13 = load ptr, ptr %5, align 8, !tbaa !11
  %14 = getelementptr inbounds nuw %struct.GraphPrintContext, ptr %13, i32 0, i32 0
  %15 = load ptr, ptr %14, align 8, !tbaa !22
  store ptr %15, ptr %9, align 8, !tbaa !27
  call void @llvm.lifetime.start.p0(i64 1024, ptr %10) #9
  %16 = load ptr, ptr %6, align 8, !tbaa !33
  %17 = icmp ne ptr %16, null
  br i1 %17, label %18, label %21

18:                                               ; preds = %4
  %19 = load ptr, ptr %7, align 8, !tbaa !33
  %20 = icmp ne ptr %19, null
  br i1 %20, label %22, label %21

21:                                               ; preds = %18, %4
  store i32 1, ptr %11, align 4
  br label %50

22:                                               ; preds = %18
  call void @av_bprint_init(ptr noundef %10, i32 noundef 0, i32 noundef -1)
  %23 = load i32, ptr %8, align 4, !tbaa !21
  %24 = icmp ne i32 %23, 0
  br i1 %24, label %29, label %25

25:                                               ; preds = %22
  %26 = load ptr, ptr %5, align 8, !tbaa !11
  %27 = getelementptr inbounds nuw %struct.GraphPrintContext, ptr %26, i32 0, i32 3
  %28 = load i32, ptr %27, align 8, !tbaa !37
  call void (ptr, ptr, ...) @av_bprintf(ptr noundef %10, ptr noundef @.str.60, i32 noundef %28)
  br label %29

29:                                               ; preds = %25, %22
  call void @llvm.lifetime.start.p0(i64 8, ptr %12) #9
  %30 = load ptr, ptr %7, align 8, !tbaa !33
  store ptr %30, ptr %12, align 8, !tbaa !33
  br label %31

31:                                               ; preds = %40, %29
  %32 = load ptr, ptr %12, align 8, !tbaa !33
  %33 = load i8, ptr %32, align 1, !tbaa !160
  %34 = icmp ne i8 %33, 0
  br i1 %34, label %36, label %35

35:                                               ; preds = %31
  store i32 2, ptr %11, align 4
  call void @llvm.lifetime.end.p0(i64 8, ptr %12) #9
  br label %43

36:                                               ; preds = %31
  %37 = load ptr, ptr %12, align 8, !tbaa !33
  %38 = load i8, ptr %37, align 1, !tbaa !160
  %39 = call signext i8 @sanitize_char(i8 noundef signext %38)
  call void @av_bprint_chars(ptr noundef %10, i8 noundef signext %39, i32 noundef 1)
  br label %40

40:                                               ; preds = %36
  %41 = load ptr, ptr %12, align 8, !tbaa !33
  %42 = getelementptr inbounds nuw i8, ptr %41, i32 1
  store ptr %42, ptr %12, align 8, !tbaa !33
  br label %31, !llvm.loop !162

43:                                               ; preds = %35
  %44 = load ptr, ptr %9, align 8, !tbaa !27
  %45 = load ptr, ptr %6, align 8, !tbaa !33
  %46 = getelementptr inbounds nuw %struct.AVBPrint, ptr %10, i32 0, i32 0
  %47 = load ptr, ptr %46, align 8, !tbaa !131
  %48 = call i32 @avtext_print_string(ptr noundef %44, ptr noundef %45, ptr noundef %47, i32 noundef 0)
  %49 = call i32 @av_bprint_finalize(ptr noundef %10, ptr noundef null)
  store i32 0, ptr %11, align 4
  br label %50

50:                                               ; preds = %43, %21
  call void @llvm.lifetime.end.p0(i64 1024, ptr %10) #9
  call void @llvm.lifetime.end.p0(i64 8, ptr %9) #9
  %51 = load i32, ptr %11, align 4
  switch i32 %51, label %53 [
    i32 0, label %52
    i32 1, label %52
  ]

52:                                               ; preds = %50, %50
  ret void

53:                                               ; preds = %50
  unreachable
}