; Function Attrs: nounwind uwtable
define internal fastcc void @print_sanizied_id(ptr noundef readonly captures(none) %0, ptr noundef %1, ptr noundef readonly captures(address_is_null) %2, i32 noundef range(i32 0, 2) %3) unnamed_addr #0 {
  %5 = alloca %struct.AVBPrint, align 8
  %6 = load ptr, ptr %0, align 8, !tbaa !13
  call void @llvm.lifetime.start.p0(i64 1024, ptr nonnull %5) #7
  %7 = icmp ne ptr %1, null
  %8 = icmp ne ptr %2, null
  %or.cond = and i1 %7, %8
  br i1 %or.cond, label %9, label %25

9:                                                ; preds = %4
  call void @av_bprint_init(ptr noundef nonnull %5, i32 noundef 0, i32 noundef -1) #7
  %.not = icmp eq i32 %3, 0
  br i1 %.not, label %10, label %13

10:                                               ; preds = %9
  %11 = getelementptr inbounds nuw i8, ptr %0, i64 40
  %12 = load i32, ptr %11, align 8, !tbaa !26
  call void (ptr, ptr, ...) @av_bprintf(ptr noundef nonnull %5, ptr noundef nonnull @.str.60, i32 noundef %12) #7
  br label %13

13:                                               ; preds = %10, %9
  %14 = load i8, ptr %2, align 1, !tbaa !117
  %.not1415 = icmp eq i8 %14, 0
  br i1 %.not1415, label %._crit_edge, label %.lr.ph

._crit_edge:                                      ; preds = %.lr.ph, %13
  %15 = load ptr, ptr %5, align 8, !tbaa !119
  %16 = call i32 @avtext_print_string(ptr noundef %6, ptr noundef nonnull %1, ptr noundef %15, i32 noundef 0) #7
  %17 = call i32 @av_bprint_finalize(ptr noundef nonnull %5, ptr noundef null) #7
  br label %25

.lr.ph:                                           ; preds = %13, %.lr.ph
  %18 = phi i8 [ %24, %.lr.ph ], [ %14, %13 ]
  %.016 = phi ptr [ %23, %.lr.ph ], [ %2, %13 ]
  %19 = add i8 %18, -48
  %or.cond.i = icmp ult i8 %19, 10
  %20 = and i8 %18, -33
  %21 = add i8 %20, -65
  %22 = icmp ult i8 %21, 26
  %or.cond17.i = or i1 %or.cond.i, %22
  %.0.i = select i1 %or.cond17.i, i8 %18, i8 95
  call void @av_bprint_chars(ptr noundef nonnull %5, i8 noundef signext %.0.i, i32 noundef 1) #7
  %23 = getelementptr inbounds nuw i8, ptr %.016, i64 1
  %24 = load i8, ptr %23, align 1, !tbaa !117
  %.not14 = icmp eq i8 %24, 0
  br i1 %.not14, label %._crit_edge, label %.lr.ph, !llvm.loop !118

25:                                               ; preds = %4, %._crit_edge
  call void @llvm.lifetime.end.p0(i64 1024, ptr nonnull %5) #7
  ret void
}